#include <math.h>
#include <stdio.h>
#include <stdlib.h>
#include <string.h>
#include <iostream>
using namespace std;

int main()
{
	int n,i,j,x[20000];                  //??????n?i?j???x[20000]???i,j????            
	cin>>n;
	for(i=0;i<n;i++)                     //?????n????????
	{
		cin>>x[i];
	}
    for(i=0;i<n;i++)
		for(j=i+1;j<n;j++)                 //?????????????
		{
			if(x[i]==x[j]&&i!=j)         //???????????0
			{
				x[j]=0;
			}
		}

    cout<<x[0];                          //????????????

	for(i=1;i<n;i++)
	{
		if(x[i]!=0)                      //?????if??????????????
		{
			cout<<" "<<x[i];
		}
	}
	cout<<endl;
	
	return 0;
}

